; Function Attrs: nounwind sspstrong uwtable
define dso_local void @host_to_target_sigset_internal(ptr noundef captures(none) initializes((0, 8)) %d, ptr noundef %s) local_unnamed_addr #1 {
entry:
  store i64 0, ptr %d, align 8
  br label %host_to_target_signal.exit

host_to_target_signal.exit:                       ; preds = %entry, %for.inc
  %indvars.iv = phi i64 [ 1, %entry ], [ %indvars.iv.next, %for.inc ]
  %arrayidx.i = getelementptr [65 x i8], ptr @host_to_target_signal_table, i64 0, i64 %indvars.iv
  %0 = load i8, ptr %arrayidx.i, align 1
  %conv.i = zext i8 %0 to i32
  %1 = add nsw i32 %conv.i, -65
  %or.cond = icmp ult i32 %1, -64
  br i1 %or.cond, label %for.inc, label %if.end

if.end:                                           ; preds = %host_to_target_signal.exit
  %2 = trunc nuw nsw i64 %indvars.iv to i32
  %call3 = tail call i32 @sigismember(ptr noundef %s, i32 noundef %2) #16
  %tobool.not = icmp eq i32 %call3, 0
  br i1 %tobool.not, label %for.inc, label %if.then4

if.then4:                                         ; preds = %if.end
  %dec.i = add nuw nsw i32 %conv.i, 63
  %rem.i = and i32 %dec.i, 63
  %sh_prom.i = zext nneg i32 %rem.i to i64
  %shl.i = shl nuw i64 1, %sh_prom.i
  %3 = load i64, ptr %d, align 8
  %or.i = or i64 %3, %shl.i
  store i64 %or.i, ptr %d, align 8
  br label %for.inc

for.inc:                                          ; preds = %if.end, %if.then4, %host_to_target_signal.exit
  %indvars.iv.next = add nuw nsw i64 %indvars.iv, 1
  %exitcond.not = icmp eq i64 %indvars.iv.next, 65
  br i1 %exitcond.not, label %for.end, label %host_to_target_signal.exit, !llvm.loop !5

for.end:                                          ; preds = %for.inc
  ret void
}